target datalayout = "e-m:e-p270:32:32-p271:32:32-p272:64:64-i64:64-i128:128-f80:128-n8:16:32:64-S128"
target triple = "x86_64-pc-linux-gnu"

%"class.duckdb_re2::StringPiece" = type { ptr, i64 }

; Function Attrs: mustprogress nounwind uwtable
define linkonce_odr hidden void @_ZN10duckdb_re211StringPiece13remove_prefixEm(ptr noundef nonnull align 8 dereferenceable(16) %0, i64 noundef %1) #0 comdat align 2 {
  %3 = alloca ptr, align 8
  %4 = alloca i64, align 8
  store ptr %0, ptr %3, align 8, !tbaa !12
  store i64 %1, ptr %4, align 8, !tbaa !24
  %5 = load ptr, ptr %3, align 8
  %6 = load i64, ptr %4, align 8, !tbaa !24
  %7 = getelementptr inbounds nuw %"class.duckdb_re2::StringPiece", ptr %5, i32 0, i32 0
  %8 = load ptr, ptr %7, align 8, !tbaa !116
  %9 = getelementptr inbounds nuw i8, ptr %8, i64 %6
  store ptr %9, ptr %7, align 8, !tbaa !116
  %10 = load i64, ptr %4, align 8, !tbaa !24
  %11 = getelementptr inbounds nuw %"class.duckdb_re2::StringPiece", ptr %5, i32 0, i32 1
  %12 = load i64, ptr %11, align 8, !tbaa !117
  %13 = sub i64 %12, %10
  store i64 %13, ptr %11, align 8, !tbaa !117
  ret void
}

; Function Attrs: mustprogress nounwind uwtable
define linkonce_odr hidden noundef i64 @_ZNK10duckdb_re211StringPiece4sizeEv(ptr noundef nonnull align 8 dereferenceable(16) %0) #0 comdat align 2 {
  %2 = alloca ptr, align 8
  store ptr %0, ptr %2, align 8, !tbaa !12
  %3 = load ptr, ptr %2, align 8
  %4 = getelementptr inbounds nuw %"class.duckdb_re2::StringPiece", ptr %3, i32 0, i32 1
  %5 = load i64, ptr %4, align 8, !tbaa !117
  ret i64 %5
}

; Function Attrs: inlinehint mustprogress nounwind willreturn memory(read) uwtable
define available_externally i32 @isdigit(i32 noundef %0) #17 {
  %2 = alloca i32, align 4
  store i32 %0, ptr %2, align 4, !tbaa !3
  %3 = call ptr @__ctype_b_loc() #26
  %4 = load ptr, ptr %3, align 8, !tbaa !342
  %5 = load i32, ptr %2, align 4, !tbaa !3
  %6 = sext i32 %5 to i64
  %7 = getelementptr inbounds i16, ptr %4, i64 %6
  %8 = load i16, ptr %7, align 2, !tbaa !344
  %9 = zext i16 %8 to i32
  %10 = and i32 %9, 2048
  ret i32 %10
}

; Function Attrs: mustprogress nounwind uwtable
define linkonce_odr hidden noundef nonnull align 1 dereferenceable(1) ptr @_ZNK10duckdb_re211StringPieceixEm(ptr noundef nonnull align 8 dereferenceable(16) %0, i64 noundef %1) #0 comdat align 2 {
  %3 = alloca ptr, align 8
  %4 = alloca i64, align 8
  store ptr %0, ptr %3, align 8, !tbaa !12
  store i64 %1, ptr %4, align 8, !tbaa !24
  %5 = load ptr, ptr %3, align 8
  %6 = getelementptr inbounds nuw %"class.duckdb_re2::StringPiece", ptr %5, i32 0, i32 0
  %7 = load ptr, ptr %6, align 8, !tbaa !116
  %8 = load i64, ptr %4, align 8, !tbaa !24
  %9 = getelementptr inbounds nuw i8, ptr %7, i64 %8
  ret ptr %9
}

; Function Attrs: mustprogress nounwind uwtable
define linkonce_odr hidden noundef zeroext i1 @_ZNK10duckdb_re211StringPiece5emptyEv(ptr noundef nonnull align 8 dereferenceable(16) %0) #0 comdat align 2 {
  %2 = alloca ptr, align 8
  store ptr %0, ptr %2, align 8, !tbaa !12
  %3 = load ptr, ptr %2, align 8
  %4 = getelementptr inbounds nuw %"class.duckdb_re2::StringPiece", ptr %3, i32 0, i32 1
  %5 = load i64, ptr %4, align 8, !tbaa !117
  %6 = icmp eq i64 %5, 0
  ret i1 %6
}

; Function Attrs: mustprogress nounwind uwtable
define internal noundef zeroext i1 @_ZN10duckdb_re2L12ParseIntegerEPNS_11StringPieceEPi(ptr noundef %0, ptr noundef %1) #0 {
  %3 = alloca i1, align 1
  %4 = alloca ptr, align 8
  %5 = alloca ptr, align 8
  %6 = alloca i32, align 4
  %7 = alloca i32, align 4
  %8 = alloca i32, align 4
  store ptr %0, ptr %4, align 8, !tbaa !12
  store ptr %1, ptr %5, align 8, !tbaa !84
  %9 = load ptr, ptr %4, align 8, !tbaa !12
  %10 = call noundef zeroext i1 @_ZNK10duckdb_re211StringPiece5emptyEv(ptr noundef nonnull align 8 dereferenceable(16) %9)
  br i1 %10, label %19, label %11

11:                                               ; preds = %2
  %12 = load ptr, ptr %4, align 8, !tbaa !12
  %13 = call noundef nonnull align 1 dereferenceable(1) ptr @_ZNK10duckdb_re211StringPieceixEm(ptr noundef nonnull align 8 dereferenceable(16) %12, i64 noundef 0)
  %14 = load i8, ptr %13, align 1, !tbaa !33
  %15 = sext i8 %14 to i32
  %16 = and i32 %15, 255
  %17 = call i32 @isdigit(i32 noundef %16) #25
  %18 = icmp ne i32 %17, 0
  br i1 %18, label %20, label %19

19:                                               ; preds = %11, %2
  store i1 false, ptr %3, align 1
  br label %68

20:                                               ; preds = %11
  %21 = load ptr, ptr %4, align 8, !tbaa !12
  %22 = call noundef i64 @_ZNK10duckdb_re211StringPiece4sizeEv(ptr noundef nonnull align 8 dereferenceable(16) %21)
  %23 = icmp uge i64 %22, 2
  br i1 %23, label %24, label %39

24:                                               ; preds = %20
  %25 = load ptr, ptr %4, align 8, !tbaa !12
  %26 = call noundef nonnull align 1 dereferenceable(1) ptr @_ZNK10duckdb_re211StringPieceixEm(ptr noundef nonnull align 8 dereferenceable(16) %25, i64 noundef 0)
  %27 = load i8, ptr %26, align 1, !tbaa !33
  %28 = sext i8 %27 to i32
  %29 = icmp eq i32 %28, 48
  br i1 %29, label %30, label %39

30:                                               ; preds = %24
  %31 = load ptr, ptr %4, align 8, !tbaa !12
  %32 = call noundef nonnull align 1 dereferenceable(1) ptr @_ZNK10duckdb_re211StringPieceixEm(ptr noundef nonnull align 8 dereferenceable(16) %31, i64 noundef 1)
  %33 = load i8, ptr %32, align 1, !tbaa !33
  %34 = sext i8 %33 to i32
  %35 = and i32 %34, 255
  %36 = call i32 @isdigit(i32 noundef %35) #25
  %37 = icmp ne i32 %36, 0
  br i1 %37, label %38, label %39

38:                                               ; preds = %30
  store i1 false, ptr %3, align 1
  br label %68

39:                                               ; preds = %30, %24, %20
  call void @llvm.lifetime.start.p0(i64 4, ptr %6) #19
  store i32 0, ptr %6, align 4, !tbaa !3
  call void @llvm.lifetime.start.p0(i64 4, ptr %7) #19
  br label %40

40:                                               ; preds = %57, %39
  %41 = load ptr, ptr %4, align 8, !tbaa !12
  %42 = call noundef zeroext i1 @_ZNK10duckdb_re211StringPiece5emptyEv(ptr noundef nonnull align 8 dereferenceable(16) %41)
  br i1 %42, label %51, label %43

43:                                               ; preds = %40
  %44 = load ptr, ptr %4, align 8, !tbaa !12
  %45 = call noundef nonnull align 1 dereferenceable(1) ptr @_ZNK10duckdb_re211StringPieceixEm(ptr noundef nonnull align 8 dereferenceable(16) %44, i64 noundef 0)
  %46 = load i8, ptr %45, align 1, !tbaa !33
  %47 = sext i8 %46 to i32
  %48 = and i32 %47, 255
  store i32 %48, ptr %7, align 4, !tbaa !3
  %49 = call i32 @isdigit(i32 noundef %48) #25
  %50 = icmp ne i32 %49, 0
  br label %51

51:                                               ; preds = %43, %40
  %52 = phi i1 [ false, %40 ], [ %50, %43 ]
  br i1 %52, label %53, label %64

53:                                               ; preds = %51
  %54 = load i32, ptr %6, align 4, !tbaa !3
  %55 = icmp sge i32 %54, 100000000
  br i1 %55, label %56, label %57

56:                                               ; preds = %53
  store i1 false, ptr %3, align 1
  store i32 1, ptr %8, align 4
  br label %67

57:                                               ; preds = %53
  %58 = load i32, ptr %6, align 4, !tbaa !3
  %59 = mul nsw i32 %58, 10
  %60 = load i32, ptr %7, align 4, !tbaa !3
  %61 = add nsw i32 %59, %60
  %62 = sub nsw i32 %61, 48
  store i32 %62, ptr %6, align 4, !tbaa !3
  %63 = load ptr, ptr %4, align 8, !tbaa !12
  call void @_ZN10duckdb_re211StringPiece13remove_prefixEm(ptr noundef nonnull align 8 dereferenceable(16) %63, i64 noundef 1)
  br label %40, !llvm.loop !355

64:                                               ; preds = %51
  %65 = load i32, ptr %6, align 4, !tbaa !3
  %66 = load ptr, ptr %5, align 8, !tbaa !84
  store i32 %65, ptr %66, align 4, !tbaa !3
  store i1 true, ptr %3, align 1
  store i32 1, ptr %8, align 4
  br label %67

67:                                               ; preds = %64, %56
  call void @llvm.lifetime.end.p0(i64 4, ptr %7) #19
  call void @llvm.lifetime.end.p0(i64 4, ptr %6) #19
  br label %68

68:                                               ; preds = %67, %38, %19
  %69 = load i1, ptr %3, align 1
  ret i1 %69
}