; Function Attrs: mustprogress nofree norecurse nosync nounwind memory(read, argmem: readwrite, inaccessiblemem: none) uwtable
define internal fastcc noundef zeroext i1 @_ZN10duckdb_re2L12ParseIntegerEPNS_11StringPieceEPi(ptr noundef nonnull captures(none) %0, ptr noundef nonnull writeonly captures(none) %1) unnamed_addr #16 {
  %3 = getelementptr inbounds nuw i8, ptr %0, i64 8
  %4 = load i64, ptr %3, align 8, !tbaa !97
  %5 = icmp eq i64 %4, 0
  br i1 %5, label %.loopexit, label %6

6:                                                ; preds = %2
  %7 = load ptr, ptr %0, align 8, !tbaa !93
  %8 = load i8, ptr %7, align 1, !tbaa !27
  %9 = add i8 %8, -48
  %isdigit = icmp ult i8 %9, 10
  br i1 %isdigit, label %10, label %.loopexit

10:                                               ; preds = %6
  %11 = icmp ne i64 %4, 1
  %12 = icmp eq i8 %8, 48
  %or.cond = and i1 %11, %12
  br i1 %or.cond, label %13, label %.lr.ph.preheader

13:                                               ; preds = %10
  %14 = getelementptr inbounds nuw i8, ptr %7, i64 1
  %15 = load i8, ptr %14, align 1, !tbaa !27
  %16 = add i8 %15, -48
  %isdigit14 = icmp ult i8 %16, 10
  br i1 %isdigit14, label %.loopexit, label %.lr.ph.preheader

.lr.ph.preheader:                                 ; preds = %10, %13
  br label %.lr.ph

.lr.ph:                                           ; preds = %.lr.ph.preheader, %24
  %17 = phi ptr [ %28, %24 ], [ %7, %.lr.ph.preheader ]
  %.01317 = phi i32 [ %27, %24 ], [ 0, %.lr.ph.preheader ]
  %18 = phi i64 [ %29, %24 ], [ %4, %.lr.ph.preheader ]
  %19 = load i8, ptr %17, align 1, !tbaa !27
  %20 = zext i8 %19 to i32
  %21 = add i8 %19, -48
  %isdigit15 = icmp ult i8 %21, 10
  br i1 %isdigit15, label %22, label %.critedge

22:                                               ; preds = %.lr.ph
  %23 = icmp sgt i32 %.01317, 99999999
  br i1 %23, label %.loopexit, label %24

24:                                               ; preds = %22
  %25 = mul nsw i32 %.01317, 10
  %26 = add i32 %25, -48
  %27 = add i32 %26, %20
  %28 = getelementptr inbounds nuw i8, ptr %17, i64 1
  store ptr %28, ptr %0, align 8, !tbaa !93
  %29 = add i64 %18, -1
  store i64 %29, ptr %3, align 8, !tbaa !97
  %30 = icmp eq i64 %29, 0
  br i1 %30, label %.critedge, label %.lr.ph, !llvm.loop !215

.critedge:                                        ; preds = %.lr.ph, %24
  %.013.lcssa.ph = phi i32 [ %.01317, %.lr.ph ], [ %27, %24 ]
  store i32 %.013.lcssa.ph, ptr %1, align 4, !tbaa !3
  br label %.loopexit

.loopexit:                                        ; preds = %22, %.critedge, %13, %2, %6
  %.0 = phi i1 [ false, %6 ], [ false, %2 ], [ false, %13 ], [ true, %.critedge ], [ false, %22 ]
  ret i1 %.0
}